; Function Attrs: mustprogress nofree norecurse nosync nounwind memory(argmem: write) uwtable
define hidden void @_ZN2cv10BmpDecoder8initMaskEv(ptr noundef nonnull writeonly align 8 captures(none) dereferenceable(1520) initializes((1472, 1504)) %0) local_unnamed_addr #4 align 2 {
  %2 = getelementptr inbounds nuw i8, ptr %0, i64 1472
  tail call void @llvm.memset.p0.i64(ptr noundef nonnull align 8 dereferenceable(16) %2, i8 0, i64 16, i1 false)
  %3 = getelementptr inbounds nuw i8, ptr %0, i64 1488
  tail call void @llvm.memset.p0.i64(ptr noundef nonnull align 8 dereferenceable(16) %3, i8 -1, i64 16, i1 false)
  %4 = getelementptr inbounds nuw i8, ptr %0, i64 1504
  br label %6

5:                                                ; preds = %6
  ret void

6:                                                ; preds = %1, %6
  %.03 = phi i64 [ 0, %1 ], [ %8, %6 ]
  %7 = getelementptr inbounds nuw [4 x float], ptr %4, i64 0, i64 %.03
  store float 1.000000e+00, ptr %7, align 4, !tbaa !61
  %8 = add nuw nsw i64 %.03, 1
  %exitcond.not = icmp eq i64 %8, 4
  br i1 %exitcond.not, label %5, label %6, !llvm.loop !63
}